; Function Attrs: mustprogress uwtable
define i32 @_ZNK32pxrInternal_v0_24__pxrReserved__11GfDualQuath9GetLengthEv(ptr noundef nonnull align 2 dereferenceable(16) %0) local_unnamed_addr #0 align 2 {
  %2 = tail call i16 @_ZN32pxrInternal_v0_24__pxrReserved__5GfDotERKNS_7GfQuathES2_(ptr noundef nonnull align 2 dereferenceable(8) %0, ptr noundef nonnull align 2 dereferenceable(8) %0)
  %3 = zext i16 %2 to i64
  %4 = getelementptr inbounds [65536 x %"union.pxrInternal_v0_24__pxrReserved__::pxr_half::half::uif"], ptr @_ZN32pxrInternal_v0_24__pxrReserved__8pxr_half4half8_toFloatE, i64 0, i64 %3
  %5 = load float, ptr %4, align 4
  %6 = tail call noundef float @sqrtf(float noundef %5) #13
  %7 = bitcast float %6 to i32
  %8 = fcmp oeq float %6, 0.000000e+00
  br i1 %8, label %9, label %12

9:                                                ; preds = %1
  %10 = lshr exact i32 %7, 16
  %11 = trunc nuw i32 %10 to i16
  br label %_ZNK32pxrInternal_v0_24__pxrReserved__7GfQuath9GetLengthEv.exit

12:                                               ; preds = %1
  %13 = lshr i32 %7, 23
  %14 = zext nneg i32 %13 to i64
  %15 = getelementptr inbounds [512 x i16], ptr @_ZN32pxrInternal_v0_24__pxrReserved__8pxr_half4half5_eLutE, i64 0, i64 %14
  %16 = load i16, ptr %15, align 2
  %.not.i.i = icmp eq i16 %16, 0
  br i1 %.not.i.i, label %26, label %17

17:                                               ; preds = %12
  %18 = and i32 %7, 8388607
  %19 = add nuw nsw i32 %18, 4095
  %20 = lshr i32 %7, 13
  %21 = and i32 %20, 1
  %22 = add nuw nsw i32 %19, %21
  %23 = lshr i32 %22, 13
  %24 = trunc nuw nsw i32 %23 to i16
  %25 = add i16 %16, %24
  br label %_ZNK32pxrInternal_v0_24__pxrReserved__7GfQuath9GetLengthEv.exit

26:                                               ; preds = %12
  %27 = tail call noundef signext i16 @_ZN32pxrInternal_v0_24__pxrReserved__8pxr_half4half7convertEi(i32 noundef %7)
  br label %_ZNK32pxrInternal_v0_24__pxrReserved__7GfQuath9GetLengthEv.exit

_ZNK32pxrInternal_v0_24__pxrReserved__7GfQuath9GetLengthEv.exit: ; preds = %9, %17, %26
  %.sink.i.i = phi i16 [ %25, %17 ], [ %27, %26 ], [ %11, %9 ]
  %28 = zext i16 %.sink.i.i to i64
  %29 = getelementptr inbounds [65536 x %"union.pxrInternal_v0_24__pxrReserved__::pxr_half::half::uif"], ptr @_ZN32pxrInternal_v0_24__pxrReserved__8pxr_half4half8_toFloatE, i64 0, i64 %28
  %30 = load float, ptr %29, align 4
  %31 = fcmp oeq float %30, 0.000000e+00
  br i1 %31, label %_ZNSt4pairIN32pxrInternal_v0_24__pxrReserved__8pxr_half4halfES2_EC2IiiTnNSt9enable_ifIXaaclsr5_PCCPE22_MoveConstructiblePairIT_T0_EEclsr5_PCCPE30_ImplicitlyMoveConvertiblePairIS6_S7_EEEbE4typeELb1EEEOS6_OS7_.exit, label %32

32:                                               ; preds = %_ZNK32pxrInternal_v0_24__pxrReserved__7GfQuath9GetLengthEv.exit
  %33 = getelementptr inbounds nuw i8, ptr %0, i64 8
  %34 = tail call i16 @_ZN32pxrInternal_v0_24__pxrReserved__5GfDotERKNS_7GfQuathES2_(ptr noundef nonnull align 2 dereferenceable(8) %0, ptr noundef nonnull align 2 dereferenceable(8) %33)
  %35 = zext i16 %34 to i64
  %36 = getelementptr inbounds [65536 x %"union.pxrInternal_v0_24__pxrReserved__::pxr_half::half::uif"], ptr @_ZN32pxrInternal_v0_24__pxrReserved__8pxr_half4half8_toFloatE, i64 0, i64 %35
  %37 = load float, ptr %36, align 4
  %38 = load float, ptr %29, align 4
  %39 = fdiv float %37, %38
  %40 = bitcast float %39 to i32
  %41 = fcmp oeq float %39, 0.000000e+00
  br i1 %41, label %42, label %45

42:                                               ; preds = %32
  %43 = lshr exact i32 %40, 16
  %44 = trunc nuw i32 %43 to i16
  br label %_ZNSt4pairIN32pxrInternal_v0_24__pxrReserved__8pxr_half4halfES2_EC2IiiTnNSt9enable_ifIXaaclsr5_PCCPE22_MoveConstructiblePairIT_T0_EEclsr5_PCCPE30_ImplicitlyMoveConvertiblePairIS6_S7_EEEbE4typeELb1EEEOS6_OS7_.exit

45:                                               ; preds = %32
  %46 = lshr i32 %40, 23
  %47 = zext nneg i32 %46 to i64
  %48 = getelementptr inbounds [512 x i16], ptr @_ZN32pxrInternal_v0_24__pxrReserved__8pxr_half4half5_eLutE, i64 0, i64 %47
  %49 = load i16, ptr %48, align 2
  %.not.i.i3 = icmp eq i16 %49, 0
  br i1 %.not.i.i3, label %59, label %50

50:                                               ; preds = %45
  %51 = and i32 %40, 8388607
  %52 = add nuw nsw i32 %51, 4095
  %53 = lshr i32 %40, 13
  %54 = and i32 %53, 1
  %55 = add nuw nsw i32 %52, %54
  %56 = lshr i32 %55, 13
  %57 = trunc nuw nsw i32 %56 to i16
  %58 = add i16 %49, %57
  br label %_ZNSt4pairIN32pxrInternal_v0_24__pxrReserved__8pxr_half4halfES2_EC2IiiTnNSt9enable_ifIXaaclsr5_PCCPE22_MoveConstructiblePairIT_T0_EEclsr5_PCCPE30_ImplicitlyMoveConvertiblePairIS6_S7_EEEbE4typeELb1EEEOS6_OS7_.exit

59:                                               ; preds = %45
  %60 = tail call noundef signext i16 @_ZN32pxrInternal_v0_24__pxrReserved__8pxr_half4half7convertEi(i32 noundef %40)
  br label %_ZNSt4pairIN32pxrInternal_v0_24__pxrReserved__8pxr_half4halfES2_EC2IiiTnNSt9enable_ifIXaaclsr5_PCCPE22_MoveConstructiblePairIT_T0_EEclsr5_PCCPE30_ImplicitlyMoveConvertiblePairIS6_S7_EEEbE4typeELb1EEEOS6_OS7_.exit

_ZNSt4pairIN32pxrInternal_v0_24__pxrReserved__8pxr_half4halfES2_EC2IiiTnNSt9enable_ifIXaaclsr5_PCCPE22_MoveConstructiblePairIT_T0_EEclsr5_PCCPE30_ImplicitlyMoveConvertiblePairIS6_S7_EEEbE4typeELb1EEEOS6_OS7_.exit: ; preds = %59, %50, %42, %_ZNK32pxrInternal_v0_24__pxrReserved__7GfQuath9GetLengthEv.exit
  %.sroa.010.0 = phi i16 [ 0, %_ZNK32pxrInternal_v0_24__pxrReserved__7GfQuath9GetLengthEv.exit ], [ %.sink.i.i, %42 ], [ %.sink.i.i, %50 ], [ %.sink.i.i, %59 ]
  %.sroa.3.0 = phi i16 [ 0, %_ZNK32pxrInternal_v0_24__pxrReserved__7GfQuath9GetLengthEv.exit ], [ %44, %42 ], [ %58, %50 ], [ %60, %59 ]
  %.sroa.3.0.insert.ext = zext i16 %.sroa.3.0 to i32
  %.sroa.3.0.insert.shift = shl nuw i32 %.sroa.3.0.insert.ext, 16
  %.sroa.010.0.insert.ext = zext i16 %.sroa.010.0 to i32
  %.sroa.010.0.insert.insert = or disjoint i32 %.sroa.3.0.insert.shift, %.sroa.010.0.insert.ext
  ret i32 %.sroa.010.0.insert.insert
}